; Function Attrs: nofree nosync nounwind memory(write, argmem: readwrite, inaccessiblemem: none) uwtable
define void @Ga2_ManAbsTranslate_rec(ptr noundef %0, ptr noundef %1, ptr noundef %2, i32 noundef %3) local_unnamed_addr #10 {
  %5 = load i64, ptr %1, align 4
  %6 = icmp sgt i64 %5, -1
  %7 = icmp ne i32 %3, 0
  %or.cond = or i1 %7, %6
  br i1 %or.cond, label %8, label %common.ret12

common.ret12:                                     ; preds = %4, %8
  ret void

8:                                                ; preds = %4
  %9 = and i64 %5, 536870911
  %10 = sub nsw i64 0, %9
  %11 = getelementptr inbounds %struct.Gia_Obj_t_, ptr %1, i64 %10
  tail call void @Ga2_ManAbsTranslate_rec(ptr noundef %0, ptr noundef nonnull %11, ptr noundef %2, i32 noundef 0)
  %12 = load i64, ptr %1, align 4
  %13 = lshr i64 %12, 32
  %14 = and i64 %13, 536870911
  %15 = sub nsw i64 0, %14
  %16 = getelementptr inbounds %struct.Gia_Obj_t_, ptr %1, i64 %15
  tail call void @Ga2_ManAbsTranslate_rec(ptr noundef %0, ptr noundef nonnull %16, ptr noundef %2, i32 noundef 0)
  %17 = getelementptr i8, ptr %0, i64 32
  %.val = load ptr, ptr %17, align 8
  %18 = ptrtoint ptr %1 to i64
  %19 = ptrtoint ptr %.val to i64
  %20 = sub i64 %18, %19
  %21 = sdiv exact i64 %20, 12
  %22 = getelementptr i8, ptr %2, i64 8
  %.val11 = load ptr, ptr %22, align 8
  %sext = shl i64 %21, 32
  %23 = ashr exact i64 %sext, 30
  %24 = getelementptr inbounds i8, ptr %.val11, i64 %23
  store i32 1, ptr %24, align 4
  br label %common.ret12
}